; Function Attrs: mustprogress uwtable
define noundef i32 @_ZNK6casadi14Multiplication10sp_reverseEPPyS2_PxS1_(ptr noundef nonnull align 8 dereferenceable(64) %0, ptr nocapture noundef readonly %1, ptr nocapture noundef readonly %2, ptr nocapture readnone %3, ptr noundef %4) unnamed_addr #3 align 2 {
  %6 = getelementptr inbounds i8, ptr %1, i64 8
  %7 = load ptr, ptr %6, align 8
  %8 = getelementptr inbounds i8, ptr %0, i64 32
  %9 = getelementptr inbounds i8, ptr %0, i64 40
  %10 = load ptr, ptr %9, align 8
  %11 = load ptr, ptr %8, align 8
  %12 = ptrtoint ptr %10 to i64
  %13 = ptrtoint ptr %11 to i64
  %14 = sub i64 %12, %13
  %15 = ashr exact i64 %14, 3
  %.not.i.i.i = icmp ugt i64 %15, 1
  br i1 %.not.i.i.i, label %_ZNK6casadi6MXNode3depEx.exit, label %16

16:                                               ; preds = %5
  tail call void (ptr, ...) @_ZSt24__throw_out_of_range_fmtPKcz(ptr noundef nonnull @.str.37, i64 noundef 1, i64 noundef %15) #18
  unreachable

_ZNK6casadi6MXNode3depEx.exit:                    ; preds = %5
  %17 = getelementptr inbounds i8, ptr %11, i64 8
  %18 = tail call noundef nonnull align 8 dereferenceable(8) ptr @_ZNK6casadi2MX8sparsityEv(ptr noundef nonnull align 8 dereferenceable(8) %17)
  %19 = load ptr, ptr %9, align 8
  %20 = load ptr, ptr %8, align 8
  %21 = ptrtoint ptr %19 to i64
  %22 = ptrtoint ptr %20 to i64
  %23 = sub i64 %21, %22
  %24 = ashr exact i64 %23, 3
  %.not.i.i.i7 = icmp ugt i64 %24, 2
  br i1 %.not.i.i.i7, label %_ZNK6casadi6MXNode3depEx.exit8, label %25

25:                                               ; preds = %_ZNK6casadi6MXNode3depEx.exit
  tail call void (ptr, ...) @_ZSt24__throw_out_of_range_fmtPKcz(ptr noundef nonnull @.str.37, i64 noundef 2, i64 noundef %24) #18
  unreachable

_ZNK6casadi6MXNode3depEx.exit8:                   ; preds = %_ZNK6casadi6MXNode3depEx.exit
  %26 = getelementptr inbounds i8, ptr %1, i64 16
  %27 = load ptr, ptr %26, align 8
  %28 = getelementptr inbounds i8, ptr %20, i64 16
  %29 = tail call noundef nonnull align 8 dereferenceable(8) ptr @_ZNK6casadi2MX8sparsityEv(ptr noundef nonnull align 8 dereferenceable(8) %28)
  %30 = load ptr, ptr %2, align 8
  %31 = getelementptr inbounds i8, ptr %0, i64 56
  tail call void @_ZN6casadi8Sparsity13mul_sparsityREPyRKS0_S1_S3_S1_S3_S1_(ptr noundef %7, ptr noundef nonnull align 8 dereferenceable(8) %18, ptr noundef %27, ptr noundef nonnull align 8 dereferenceable(8) %29, ptr noundef %30, ptr noundef nonnull align 8 dereferenceable(8) %31, ptr noundef %4)
  %32 = load ptr, ptr %1, align 8
  %33 = load ptr, ptr %2, align 8
  %34 = load ptr, ptr %0, align 8
  %35 = getelementptr inbounds i8, ptr %34, i64 352
  %36 = load ptr, ptr %35, align 8
  %37 = tail call noundef nonnull align 8 dereferenceable(8) ptr %36(ptr noundef nonnull align 8 dereferenceable(64) %0, i64 noundef 0)
  %38 = tail call noundef i64 @_ZNK6casadi8Sparsity3nnzEv(ptr noundef nonnull align 8 dereferenceable(8) %37)
  tail call void @_ZN6casadi6MXNode8copy_revEPyS1_x(ptr noundef %32, ptr noundef %33, i64 noundef %38)
  ret i32 0
}